(lp0
S'poi'
p1
aS'salary'
p2
aS'deferral_payments'
p3
aS'expenses'
p4
aS'deferred_income'
p5
aS'long_term_incentive'
p6
aS'restricted_stock_deferred'
p7
aS'loan_advances'
p8
aS'director_fees'
p9
aS'bonus'
p10
aS'other'
p11
aS'total_stock_value'
p12
aS'restricted_stock'
p13
aS'total_payments'
p14
aS'exercised_stock_options'
p15
aS'shared_receipt_with_poi'
p16
aS'to_poi_ratio'
p17
aS'from_poi_ratio'
p18
a.